; Function Attrs: mustprogress uwtable
define dso_local void @_ZN7doctest6detail8TestCaseC2ERKS1_(ptr noundef nonnull align 8 dereferenceable(144) initializes((0, 80), (88, 89), (111, 112), (120, 121), (143, 144)) %0, ptr noundef nonnull align 8 dereferenceable(144) %1) unnamed_addr #8 align 2 personality ptr @__gxx_personality_v0 {
  %3 = getelementptr inbounds nuw i8, ptr %0, i64 23
  tail call void @llvm.memset.p0.i64(ptr noundef nonnull align 8 dereferenceable(80) %0, i8 0, i64 80, i1 false)
  store i8 23, ptr %3, align 1, !tbaa !38
  %4 = getelementptr inbounds nuw i8, ptr %0, i64 88
  store i8 0, ptr %4, align 8, !tbaa !38
  %5 = getelementptr inbounds nuw i8, ptr %0, i64 111
  store i8 23, ptr %5, align 1, !tbaa !38
  %6 = getelementptr inbounds nuw i8, ptr %0, i64 120
  store i8 0, ptr %6, align 8, !tbaa !38
  %7 = getelementptr inbounds nuw i8, ptr %0, i64 143
  store i8 23, ptr %7, align 1, !tbaa !38
  %8 = invoke noundef nonnull align 8 dereferenceable(144) ptr @_ZN7doctest6detail8TestCaseaSERKS1_(ptr noundef nonnull align 8 dereferenceable(144) %0, ptr noundef nonnull align 8 dereferenceable(144) %1)
          to label %9 unwind label %10

9:                                                ; preds = %2
  ret void

10:                                               ; preds = %2
  %11 = landingpad { ptr, i32 }
          cleanup
  %12 = load i8, ptr %7, align 1, !tbaa !38
  %13 = icmp sgt i8 %12, -1
  br i1 %13, label %_ZN7doctest6StringD2Ev.exit, label %14

14:                                               ; preds = %10
  %15 = load ptr, ptr %6, align 8, !tbaa !38
  %16 = icmp eq ptr %15, null
  br i1 %16, label %_ZN7doctest6StringD2Ev.exit, label %17

17:                                               ; preds = %14
  tail call void @_ZdaPv(ptr noundef nonnull %15) #48
  br label %_ZN7doctest6StringD2Ev.exit

_ZN7doctest6StringD2Ev.exit:                      ; preds = %10, %14, %17
  %18 = load i8, ptr %5, align 1, !tbaa !38
  %19 = icmp sgt i8 %18, -1
  br i1 %19, label %_ZN7doctest6StringD2Ev.exit3, label %20

20:                                               ; preds = %_ZN7doctest6StringD2Ev.exit
  %21 = load ptr, ptr %4, align 8, !tbaa !38
  %22 = icmp eq ptr %21, null
  br i1 %22, label %_ZN7doctest6StringD2Ev.exit3, label %23

23:                                               ; preds = %20
  tail call void @_ZdaPv(ptr noundef nonnull %21) #48
  br label %_ZN7doctest6StringD2Ev.exit3

_ZN7doctest6StringD2Ev.exit3:                     ; preds = %_ZN7doctest6StringD2Ev.exit, %20, %23
  %24 = load i8, ptr %3, align 1, !tbaa !38
  %25 = icmp sgt i8 %24, -1
  br i1 %25, label %_ZN7doctest12TestCaseDataD2Ev.exit, label %26

26:                                               ; preds = %_ZN7doctest6StringD2Ev.exit3
  %27 = load ptr, ptr %0, align 8, !tbaa !38
  %28 = icmp eq ptr %27, null
  br i1 %28, label %_ZN7doctest12TestCaseDataD2Ev.exit, label %29

29:                                               ; preds = %26
  tail call void @_ZdaPv(ptr noundef nonnull %27) #48
  br label %_ZN7doctest12TestCaseDataD2Ev.exit

_ZN7doctest12TestCaseDataD2Ev.exit:               ; preds = %_ZN7doctest6StringD2Ev.exit3, %26, %29
  resume { ptr, i32 } %11
}